target datalayout = "e-m:e-p270:32:32-p271:32:32-p272:64:64-i64:64-i128:128-f80:128-n8:16:32:64-S128"
target triple = "x86_64-pc-linux-gnu"

%struct.TypeCacheEntry = type { i32, i32, i16, i8, i8, i8, i8, i32, i32, i32, i32, i32, i32, i32, i32, i32, i32, i32, i32, i32, i32, %struct.FmgrInfo, %struct.FmgrInfo, %struct.FmgrInfo, %struct.FmgrInfo, ptr, i64, ptr, i32, i32, %struct.FmgrInfo, %struct.FmgrInfo, %struct.FmgrInfo, ptr, i32, i32, ptr, i32, ptr, ptr }
%struct.FmgrInfo = type { ptr, i32, i16, i8, i8, i8, ptr, ptr, ptr }
%struct.HASH_SEQ_STATUS = type { ptr, i32, ptr, i8, i32 }

@TypeCacheHash = internal global ptr null, align 8

; Function Attrs: nounwind uwtable
define internal void @TypeCacheOpcCallback(i64 noundef %0, i32 noundef %1, i32 noundef %2) #0 {
  %4 = alloca i64, align 8
  %5 = alloca i32, align 4
  %6 = alloca i32, align 4
  %7 = alloca %struct.HASH_SEQ_STATUS, align 8
  %8 = alloca ptr, align 8
  store i64 %0, ptr %4, align 8
  store i32 %1, ptr %5, align 4
  store i32 %2, ptr %6, align 4
  call void @llvm.lifetime.start.p0(i64 32, ptr %7) #11
  call void @llvm.lifetime.start.p0(i64 8, ptr %8) #11
  %9 = load ptr, ptr @TypeCacheHash, align 8
  call void @hash_seq_init(ptr noundef %7, ptr noundef %9)
  br label %10

10:                                               ; preds = %13, %3
  %11 = call ptr @hash_seq_search(ptr noundef %7)
  store ptr %11, ptr %8, align 8
  %12 = icmp ne ptr %11, null
  br i1 %12, label %13, label %18

13:                                               ; preds = %10
  %14 = load ptr, ptr %8, align 8
  %15 = getelementptr inbounds nuw %struct.TypeCacheEntry, ptr %14, i32 0, i32 37
  %16 = load i32, ptr %15, align 8
  %17 = and i32 %16, 1572865
  store i32 %17, ptr %15, align 8
  br label %10, !llvm.loop !11

18:                                               ; preds = %10
  call void @llvm.lifetime.end.p0(i64 8, ptr %8) #11
  call void @llvm.lifetime.end.p0(i64 32, ptr %7) #11
  ret void
}