; Function Attrs: nounwind uwtable
define internal void @TypeCacheOpcCallback(i64 %0, i32 %1, i32 %2) #0 {
  %4 = alloca %struct.HASH_SEQ_STATUS, align 8
  call void @llvm.lifetime.start.p0(i64 32, ptr nonnull %4) #16
  %5 = load ptr, ptr @TypeCacheHash, align 8
  call void @hash_seq_init(ptr noundef nonnull %4, ptr noundef %5) #16
  %6 = call ptr @hash_seq_search(ptr noundef nonnull %4) #16
  %.not1 = icmp eq ptr %6, null
  br i1 %.not1, label %._crit_edge, label %.lr.ph

.lr.ph:                                           ; preds = %3, %.lr.ph
  %7 = phi ptr [ %11, %.lr.ph ], [ %6, %3 ]
  %8 = getelementptr inbounds nuw i8, ptr %7, i64 464
  %9 = load i32, ptr %8, align 8
  %10 = and i32 %9, 1572865
  store i32 %10, ptr %8, align 8
  %11 = call ptr @hash_seq_search(ptr noundef nonnull %4) #16
  %.not = icmp eq ptr %11, null
  br i1 %.not, label %._crit_edge, label %.lr.ph, !llvm.loop !10

._crit_edge:                                      ; preds = %.lr.ph, %3
  call void @llvm.lifetime.end.p0(i64 32, ptr nonnull %4) #16
  ret void
}